; Function Attrs: nounwind uwtable
define void @Cec_ManSVerifyTwo(ptr noundef %0, i32 noundef %1, i32 noundef %2) local_unnamed_addr #0 {
  tail call void @Gia_ManIncrementTravId(ptr noundef %0) #20
  %4 = tail call i32 @Cec_ManSVerify_rec(ptr noundef %0, i32 noundef %1)
  %5 = tail call i32 @Cec_ManSVerify_rec(ptr noundef %0, i32 noundef %2)
  %6 = xor i32 %5, %4
  %7 = getelementptr i8, ptr %0, i64 32
  %.val = load ptr, ptr %7, align 8, !tbaa !52
  %8 = sext i32 %1 to i64
  %9 = getelementptr inbounds %struct.Gia_Obj_t_, ptr %.val, i64 %8
  %10 = load i64, ptr %9, align 4
  %11 = sext i32 %2 to i64
  %12 = getelementptr inbounds %struct.Gia_Obj_t_, ptr %.val, i64 %11
  %13 = load i64, ptr %12, align 4
  %14 = xor i64 %13, %10
  %15 = lshr i64 %14, 63
  %16 = trunc nuw nsw i64 %15 to i32
  %17 = icmp eq i32 %6, %16
  br i1 %17, label %18, label %20

18:                                               ; preds = %3
  %19 = tail call i32 (ptr, ...) @printf(ptr noundef nonnull dereferenceable(1) @.str, i32 noundef %1, i32 noundef %2)
  br label %20

20:                                               ; preds = %18, %3
  ret void
}